target datalayout = "e-m:e-p270:32:32-p271:32:32-p272:64:64-i64:64-i128:128-f80:128-n8:16:32:64-S128"
target triple = "x86_64-pc-linux-gnu"

; Function Attrs: nounwind uwtable
define i32 @GetASN_BitString(ptr noundef %0, i32 noundef %1, i32 noundef %2) #0 {
  %4 = alloca i32, align 4
  %5 = alloca ptr, align 8
  %6 = alloca i32, align 4
  %7 = alloca i32, align 4
  store ptr %0, ptr %5, align 8, !tbaa !7
  store i32 %1, ptr %6, align 4, !tbaa !3
  store i32 %2, ptr %7, align 4, !tbaa !3
  %8 = load i32, ptr %7, align 4, !tbaa !3
  %9 = icmp eq i32 %8, 0
  br i1 %9, label %10, label %11

10:                                               ; preds = %3
  store i32 -140, ptr %4, align 4
  br label %43

11:                                               ; preds = %3
  %12 = load ptr, ptr %5, align 8, !tbaa !7
  %13 = load i32, ptr %6, align 4, !tbaa !3
  %14 = zext i32 %13 to i64
  %15 = getelementptr inbounds nuw i8, ptr %12, i64 %14
  %16 = load i8, ptr %15, align 1, !tbaa !10
  %17 = zext i8 %16 to i32
  %18 = icmp sgt i32 %17, 7
  br i1 %18, label %19, label %20

19:                                               ; preds = %11
  store i32 -140, ptr %4, align 4
  br label %43

20:                                               ; preds = %11
  %21 = load ptr, ptr %5, align 8, !tbaa !7
  %22 = load i32, ptr %6, align 4, !tbaa !3
  %23 = load i32, ptr %7, align 4, !tbaa !3
  %24 = add i32 %22, %23
  %25 = sub i32 %24, 1
  %26 = zext i32 %25 to i64
  %27 = getelementptr inbounds nuw i8, ptr %21, i64 %26
  %28 = load i8, ptr %27, align 1, !tbaa !10
  %29 = zext i8 %28 to i32
  %30 = load ptr, ptr %5, align 8, !tbaa !7
  %31 = load i32, ptr %6, align 4, !tbaa !3
  %32 = zext i32 %31 to i64
  %33 = getelementptr inbounds nuw i8, ptr %30, i64 %32
  %34 = load i8, ptr %33, align 1, !tbaa !10
  %35 = zext i8 %34 to i32
  %36 = sub nsw i32 8, %35
  %37 = shl i32 %29, %36
  %38 = trunc i32 %37 to i8
  %39 = zext i8 %38 to i32
  %40 = icmp ne i32 %39, 0
  br i1 %40, label %41, label %42

41:                                               ; preds = %20
  store i32 -140, ptr %4, align 4
  br label %43

42:                                               ; preds = %20
  store i32 0, ptr %4, align 4
  br label %43

43:                                               ; preds = %42, %41, %19, %10
  %44 = load i32, ptr %4, align 4
  ret i32 %44
}