; Function Attrs: mustprogress nofree norecurse nosync nounwind willreturn memory(argmem: read) uwtable
define range(i32 -140, 1) i32 @GetASN_BitString(ptr noundef readonly captures(none) %0, i32 noundef %1, i32 noundef %2) local_unnamed_addr #5 {
  %4 = icmp eq i32 %2, 0
  br i1 %4, label %20, label %5

5:                                                ; preds = %3
  %6 = zext i32 %1 to i64
  %7 = getelementptr inbounds nuw i8, ptr %0, i64 %6
  %8 = load i8, ptr %7, align 1, !tbaa !3
  %9 = icmp ugt i8 %8, 7
  br i1 %9, label %20, label %10

10:                                               ; preds = %5
  %11 = add i32 %1, -1
  %12 = add i32 %11, %2
  %13 = zext i32 %12 to i64
  %14 = getelementptr inbounds nuw i8, ptr %0, i64 %13
  %15 = load i8, ptr %14, align 1, !tbaa !3
  %16 = zext i8 %15 to i16
  %narrow = sub nuw nsw i8 8, %8
  %17 = zext nneg i8 %narrow to i16
  %18 = lshr i16 254, %17
  %19 = and i16 %18, %16
  %.not = icmp eq i16 %19, 0
  %. = select i1 %.not, i32 0, i32 -140
  br label %20

20:                                               ; preds = %10, %5, %3
  %.0 = phi i32 [ -140, %3 ], [ -140, %5 ], [ %., %10 ]
  ret i32 %.0
}